target datalayout = "e-m:e-p270:32:32-p271:32:32-p272:64:64-i64:64-i128:128-f80:128-n8:16:32:64-S128"
target triple = "x86_64-pc-linux-gnu"

@bio_err = external global ptr, align 8
@.str.8 = private unnamed_addr constant [37 x i8] c"unable to get certificate from '%s'\0A\00", align 1
@.str.9 = private unnamed_addr constant [37 x i8] c"unable to get private key from '%s'\0A\00", align 1
@.str.10 = private unnamed_addr constant [55 x i8] c"Private key does not match the certificate public key\0A\00", align 1

; Function Attrs: nounwind uwtable
define i32 @set_cert_stuff(ptr noundef %0, ptr noundef %1, ptr noundef %2) #0 {
  %4 = alloca i32, align 4
  %5 = alloca ptr, align 8
  %6 = alloca ptr, align 8
  %7 = alloca ptr, align 8
  store ptr %0, ptr %5, align 8, !tbaa !19
  store ptr %1, ptr %6, align 8, !tbaa !21
  store ptr %2, ptr %7, align 8, !tbaa !21
  %8 = load ptr, ptr %6, align 8, !tbaa !21
  %9 = icmp ne ptr %8, null
  br i1 %9, label %10, label %43

10:                                               ; preds = %3
  %11 = load ptr, ptr %5, align 8, !tbaa !19
  %12 = load ptr, ptr %6, align 8, !tbaa !21
  %13 = call i32 @SSL_CTX_use_certificate_file(ptr noundef %11, ptr noundef %12, i32 noundef 1)
  %14 = icmp sle i32 %13, 0
  br i1 %14, label %15, label %20

15:                                               ; preds = %10
  %16 = load ptr, ptr @bio_err, align 8, !tbaa !14
  %17 = load ptr, ptr %6, align 8, !tbaa !21
  %18 = call i32 (ptr, ptr, ...) @BIO_printf(ptr noundef %16, ptr noundef @.str.8, ptr noundef %17)
  %19 = load ptr, ptr @bio_err, align 8, !tbaa !14
  call void @ERR_print_errors(ptr noundef %19)
  store i32 0, ptr %4, align 4
  br label %44

20:                                               ; preds = %10
  %21 = load ptr, ptr %7, align 8, !tbaa !21
  %22 = icmp eq ptr %21, null
  br i1 %22, label %23, label %25

23:                                               ; preds = %20
  %24 = load ptr, ptr %6, align 8, !tbaa !21
  store ptr %24, ptr %7, align 8, !tbaa !21
  br label %25

25:                                               ; preds = %23, %20
  %26 = load ptr, ptr %5, align 8, !tbaa !19
  %27 = load ptr, ptr %7, align 8, !tbaa !21
  %28 = call i32 @SSL_CTX_use_PrivateKey_file(ptr noundef %26, ptr noundef %27, i32 noundef 1)
  %29 = icmp sle i32 %28, 0
  br i1 %29, label %30, label %35

30:                                               ; preds = %25
  %31 = load ptr, ptr @bio_err, align 8, !tbaa !14
  %32 = load ptr, ptr %7, align 8, !tbaa !21
  %33 = call i32 (ptr, ptr, ...) @BIO_printf(ptr noundef %31, ptr noundef @.str.9, ptr noundef %32)
  %34 = load ptr, ptr @bio_err, align 8, !tbaa !14
  call void @ERR_print_errors(ptr noundef %34)
  store i32 0, ptr %4, align 4
  br label %44

35:                                               ; preds = %25
  %36 = load ptr, ptr %5, align 8, !tbaa !19
  %37 = call i32 @SSL_CTX_check_private_key(ptr noundef %36)
  %38 = icmp ne i32 %37, 0
  br i1 %38, label %42, label %39

39:                                               ; preds = %35
  %40 = load ptr, ptr @bio_err, align 8, !tbaa !14
  %41 = call i32 (ptr, ptr, ...) @BIO_printf(ptr noundef %40, ptr noundef @.str.10)
  store i32 0, ptr %4, align 4
  br label %44

42:                                               ; preds = %35
  br label %43

43:                                               ; preds = %42, %3
  store i32 1, ptr %4, align 4
  br label %44

44:                                               ; preds = %43, %39, %30, %15
  %45 = load i32, ptr %4, align 4
  ret i32 %45
}