; Function Attrs: nounwind uwtable
define range(i32 0, 2) i32 @set_cert_stuff(ptr noundef %0, ptr noundef %1, ptr noundef %2) local_unnamed_addr #0 {
  %.not = icmp eq ptr %1, null
  br i1 %.not, label %24, label %4

4:                                                ; preds = %3
  %5 = tail call i32 @SSL_CTX_use_certificate_file(ptr noundef %0, ptr noundef nonnull %1, i32 noundef 1) #6
  %6 = icmp slt i32 %5, 1
  br i1 %6, label %7, label %11

7:                                                ; preds = %4
  %8 = load ptr, ptr @bio_err, align 8, !tbaa !8
  %9 = tail call i32 (ptr, ptr, ...) @BIO_printf(ptr noundef %8, ptr noundef nonnull @.str.8, ptr noundef nonnull %1) #6
  %10 = load ptr, ptr @bio_err, align 8, !tbaa !8
  tail call void @ERR_print_errors(ptr noundef %10) #6
  br label %24

11:                                               ; preds = %4
  %12 = icmp eq ptr %2, null
  %spec.select = select i1 %12, ptr %1, ptr %2
  %13 = tail call i32 @SSL_CTX_use_PrivateKey_file(ptr noundef %0, ptr noundef nonnull %spec.select, i32 noundef 1) #6
  %14 = icmp slt i32 %13, 1
  br i1 %14, label %15, label %19

15:                                               ; preds = %11
  %16 = load ptr, ptr @bio_err, align 8, !tbaa !8
  %17 = tail call i32 (ptr, ptr, ...) @BIO_printf(ptr noundef %16, ptr noundef nonnull @.str.9, ptr noundef nonnull %spec.select) #6
  %18 = load ptr, ptr @bio_err, align 8, !tbaa !8
  tail call void @ERR_print_errors(ptr noundef %18) #6
  br label %24

19:                                               ; preds = %11
  %20 = tail call i32 @SSL_CTX_check_private_key(ptr noundef %0) #6
  %.not13 = icmp eq i32 %20, 0
  br i1 %.not13, label %21, label %24

21:                                               ; preds = %19
  %22 = load ptr, ptr @bio_err, align 8, !tbaa !8
  %23 = tail call i32 (ptr, ptr, ...) @BIO_printf(ptr noundef %22, ptr noundef nonnull @.str.10) #6
  br label %24

24:                                               ; preds = %3, %19, %21, %15, %7
  %.010 = phi i32 [ 0, %7 ], [ 0, %15 ], [ 0, %21 ], [ 1, %19 ], [ 1, %3 ]
  ret i32 %.010
}